#include <math.h>
#include <stdio.h>
#include <stdlib.h>
#include <string.h>

int main()
{
int n,m=0,i;
scanf("%d",&n);
for(i=0;;i++)
{
	if(n==1)
	{
	    printf("End\n");
		break;
	}
	else
	{
		if(n%2==0)
		{
			m=n/2;
			printf("%d/2=%d\n",n,m);
			n=m;m=0;
		}
		else
		{
			m=3*n+1;
			printf("%d*3+1=%d\n",n,m);
			n=m;m=0;
		}
	}
}

return 0;
}
